target datalayout = "e-m:e-p270:32:32-p271:32:32-p272:64:64-i64:64-i128:128-f80:128-n8:16:32:64-S128"
target triple = "x86_64-pc-linux-gnu"

@rb_resolve_feature_path.rbimpl_id = internal global i64 0, align 8
@.str.1 = private unnamed_addr constant [3 x i8] c"rb\00", align 1
@rb_resolve_feature_path.rbimpl_id.2 = internal global i64 0, align 8
@.str.3 = private unnamed_addr constant [3 x i8] c"so\00", align 1
@ruby_current_vm_ptr = external global ptr, align 8

; Function Attrs: inlinehint nounwind sspstrong willreturn memory(read) uwtable
define internal i64 @rb_intern_const(ptr noundef nonnull %0) #12 {
  %2 = alloca ptr, align 8
  %3 = alloca i64, align 8
  store ptr %0, ptr %2, align 8, !tbaa !43
  call void @llvm.lifetime.start.p0(i64 8, ptr %3) #8
  %4 = load ptr, ptr %2, align 8, !tbaa !43
  %5 = call i64 @strlen(ptr noundef %4) #29
  store i64 %5, ptr %3, align 8, !tbaa !12
  %6 = load ptr, ptr %2, align 8, !tbaa !43
  %7 = load i64, ptr %3, align 8, !tbaa !12
  %8 = call i64 @rb_intern2(ptr noundef %6, i64 noundef %7)
  call void @llvm.lifetime.end.p0(i64 8, ptr %3) #8
  ret i64 %8
}

; Function Attrs: inlinehint nounwind sspstrong memory(argmem: readwrite, inaccessiblemem: readwrite) uwtable
define internal i64 @rbimpl_intern_const(ptr noundef nonnull %0, ptr noundef nonnull %1) #11 {
  %3 = alloca ptr, align 8
  %4 = alloca ptr, align 8
  store ptr %0, ptr %3, align 8, !tbaa !48
  store ptr %1, ptr %4, align 8, !tbaa !43
  br label %5

5:                                                ; preds = %10, %2
  %6 = load ptr, ptr %3, align 8, !tbaa !48
  %7 = load i64, ptr %6, align 8, !tbaa !12
  %8 = icmp ne i64 %7, 0
  %9 = xor i1 %8, true
  br i1 %9, label %10, label %14

10:                                               ; preds = %5
  %11 = load ptr, ptr %4, align 8, !tbaa !43
  %12 = call i64 @rb_intern_const(ptr noundef %11) #29
  %13 = load ptr, ptr %3, align 8, !tbaa !48
  store i64 %12, ptr %13, align 8, !tbaa !12
  br label %5, !llvm.loop !79

14:                                               ; preds = %5
  %15 = load ptr, ptr %3, align 8, !tbaa !48
  %16 = load i64, ptr %15, align 8, !tbaa !12
  ret i64 %16
}

; Function Attrs: inlinehint nounwind sspstrong uwtable
define internal ptr @rb_current_vm() #1 {
  %1 = load ptr, ptr @ruby_current_vm_ptr, align 8, !tbaa !7
  ret ptr %1
}

; Function Attrs: nounwind sspstrong uwtable
define hidden i64 @rb_resolve_feature_path(i64 noundef %0, i64 noundef %1) #0 {
  %3 = alloca i64, align 8
  %4 = alloca i64, align 8
  %5 = alloca i64, align 8
  %6 = alloca i64, align 8
  %7 = alloca i32, align 4
  %8 = alloca i64, align 8
  %9 = alloca i64, align 8
  %10 = alloca i64, align 8
  %11 = alloca i32, align 4
  store i64 %0, ptr %4, align 8, !tbaa !12
  store i64 %1, ptr %5, align 8, !tbaa !12
  call void @llvm.lifetime.start.p0(i64 8, ptr %6) #8
  call void @llvm.lifetime.start.p0(i64 4, ptr %7) #8
  call void @llvm.lifetime.start.p0(i64 8, ptr %8) #8
  %12 = load i64, ptr %5, align 8, !tbaa !12
  %13 = call i64 @rb_get_path(i64 noundef %12)
  store i64 %13, ptr %5, align 8, !tbaa !12
  %14 = load i64, ptr %5, align 8, !tbaa !12
  %15 = call i64 @rb_str_encode_ospath(i64 noundef %14)
  store i64 %15, ptr %6, align 8, !tbaa !12
  %16 = call ptr @rb_current_vm()
  %17 = load i64, ptr %6, align 8, !tbaa !12
  %18 = call i32 @search_required(ptr noundef %16, i64 noundef %17, ptr noundef %6, ptr noundef @no_feature_p)
  store i32 %18, ptr %7, align 4, !tbaa !39
  %19 = load i32, ptr %7, align 4, !tbaa !39
  switch i32 %19, label %28 [
    i32 114, label %20
    i32 115, label %24
  ]

20:                                               ; preds = %2
  %21 = call i64 @rbimpl_intern_const(ptr noundef @rb_resolve_feature_path.rbimpl_id, ptr noundef @.str.1) #32
  store i64 %21, ptr %9, align 8, !tbaa !12
  %22 = load i64, ptr %9, align 8, !tbaa !12
  %23 = call i64 @rb_id2sym(i64 noundef %22)
  store i64 %23, ptr %8, align 8, !tbaa !12
  br label %29

24:                                               ; preds = %2
  %25 = call i64 @rbimpl_intern_const(ptr noundef @rb_resolve_feature_path.rbimpl_id.2, ptr noundef @.str.3) #32
  store i64 %25, ptr %10, align 8, !tbaa !12
  %26 = load i64, ptr %10, align 8, !tbaa !12
  %27 = call i64 @rb_id2sym(i64 noundef %26)
  store i64 %27, ptr %8, align 8, !tbaa !12
  br label %29

28:                                               ; preds = %2
  store i64 4, ptr %3, align 8
  store i32 1, ptr %11, align 4
  br label %33

29:                                               ; preds = %24, %20
  %30 = load i64, ptr %8, align 8, !tbaa !12
  %31 = load i64, ptr %6, align 8, !tbaa !12
  %32 = call i64 (i64, ...) @rb_ary_new_from_args(i64 noundef 2, i64 noundef %30, i64 noundef %31)
  store i64 %32, ptr %3, align 8
  store i32 1, ptr %11, align 4
  br label %33

33:                                               ; preds = %29, %28
  call void @llvm.lifetime.end.p0(i64 8, ptr %8) #8
  call void @llvm.lifetime.end.p0(i64 4, ptr %7) #8
  call void @llvm.lifetime.end.p0(i64 8, ptr %6) #8
  %34 = load i64, ptr %3, align 8
  ret i64 %34
}