; Function Attrs: nounwind sspstrong uwtable
define hidden i64 @rb_resolve_feature_path(i64 %0, i64 noundef %1) #0 {
  %3 = alloca i64, align 8
  call void @llvm.lifetime.start.p0(i64 8, ptr nonnull %3) #7
  %4 = tail call i64 @rb_get_path(i64 noundef %1) #7
  %5 = tail call i64 @rb_str_encode_ospath(i64 noundef %4) #7
  store i64 %5, ptr %3, align 8, !tbaa !42
  %6 = load ptr, ptr @ruby_current_vm_ptr, align 8, !tbaa !7
  %7 = call fastcc i32 @search_required(ptr noundef %6, i64 noundef %5, ptr noundef %3, ptr noundef nonnull @no_feature_p)
  switch i32 %7, label %15 [
    i32 114, label %8
    i32 115, label %10
  ]

8:                                                ; preds = %2
  %.pr.i = load i64, ptr @rb_resolve_feature_path.rbimpl_id, align 8, !tbaa !42
  %.not4.i = icmp eq i64 %.pr.i, 0
  br i1 %.not4.i, label %.lr.ph.i, label %rbimpl_intern_const.exit

.lr.ph.i:                                         ; preds = %8, %.lr.ph.i
  %9 = call i64 @rb_intern2(ptr noundef nonnull @.str.1, i64 noundef 2) #7
  store i64 %9, ptr @rb_resolve_feature_path.rbimpl_id, align 8, !tbaa !42
  %.not.i = icmp eq i64 %9, 0
  br i1 %.not.i, label %.lr.ph.i, label %rbimpl_intern_const.exit, !llvm.loop !92

10:                                               ; preds = %2
  %.pr.i8 = load i64, ptr @rb_resolve_feature_path.rbimpl_id.2, align 8, !tbaa !42
  %.not4.i9 = icmp eq i64 %.pr.i8, 0
  br i1 %.not4.i9, label %.lr.ph.i11, label %rbimpl_intern_const.exit

.lr.ph.i11:                                       ; preds = %10, %.lr.ph.i11
  %11 = call i64 @rb_intern2(ptr noundef nonnull @.str.3, i64 noundef 2) #7
  store i64 %11, ptr @rb_resolve_feature_path.rbimpl_id.2, align 8, !tbaa !42
  %.not.i12 = icmp eq i64 %11, 0
  br i1 %.not.i12, label %.lr.ph.i11, label %rbimpl_intern_const.exit, !llvm.loop !92

rbimpl_intern_const.exit:                         ; preds = %.lr.ph.i11, %.lr.ph.i, %10, %8
  %.lcssa.i10.sink = phi i64 [ %.pr.i, %8 ], [ %.pr.i8, %10 ], [ %9, %.lr.ph.i ], [ %11, %.lr.ph.i11 ]
  %12 = call i64 @rb_id2sym(i64 noundef %.lcssa.i10.sink) #7
  %13 = load i64, ptr %3, align 8, !tbaa !42
  %14 = call i64 (i64, ...) @rb_ary_new_from_args(i64 noundef 2, i64 noundef %12, i64 noundef %13) #7
  br label %15

15:                                               ; preds = %2, %rbimpl_intern_const.exit
  %.0 = phi i64 [ %14, %rbimpl_intern_const.exit ], [ 4, %2 ]
  call void @llvm.lifetime.end.p0(i64 8, ptr nonnull %3) #7
  ret i64 %.0
}